(dp0
S'./src/index.jade'
p1
F1468592733.349512
sS'./src/mui.min.js'
p2
F1468592733.4021945
sS'./src/style.scss'
p3
F1468599811.1820226
sS'./src/S1234567A.json'
p4
F1468592733.341886
sS'./src/full_data.json'
p5
F1468592733.3479667
sS'./src/script.js'
p6
F1468592733.4047728
sS'./src/data.js'
p7
F1468592733.3462977
sS'./src/_mui.scss'
p8
F1468592733.3435578
sS'./src/assets/fonts/fontawesome-webfont.woff2'
p9
F1468592733.4111836
sS'./src/path.min.js'
p10
F1468592733.403334
sS'./src/logic.js'
p11
F1468592733.3997858
s.