(dp0
S'./src/index.jade'
p1
F1467955681.8328712
sS'./src/mui.min.js'
p2
F1467901292.6336443
sS'./src/style.scss'
p3
F1467901292.788201
sS'./src/S1234567A.json'
p4
F1467901292.6278276
sS'./src/full_data.json'
p5
F1467901292.630511
sS'./src/script.js'
p6
F1467955679.805221
sS'./src/data.js'
p7
F1467956035.0762537
sS'./src/_mui.scss'
p8
F1467901292.6295247
sS'./src/assets/fonts/fontawesome-webfont.woff2'
p9
F1467901292.7897358
sS'./src/path.min.js'
p10
F1467901292.6346023
sS'./src/logic.js'
p11
F1467955678.211352
s.