(dp0
S'./src/index.jade'
p1
F1468410223.0
sS'./src/mui.min.js'
p2
F1468034203.0
sS'./src/style.scss'
p3
F1468410233.0
sS'./src/S1234567A.json'
p4
F1468034203.0
sS'./src/full_data.json'
p5
F1468034203.0
sS'./src/script.js'
p6
F1468410187.0
sS'./src/data.js'
p7
F1468397911.0
sS'./src/_mui.scss'
p8
F1468406409.0
sS'./src/assets/fonts/fontawesome-webfont.woff2'
p9
F1468034203.0
sS'./src/path.min.js'
p10
F1468034203.0
sS'./src/logic.js'
p11
F1468397949.0
s.