(dp0
S'./src/index.jade'
p1
F1471137150.7216647
sS'./src/mui.min.js'
p2
F1471134300.350348
sS'./src/style.scss'
p3
F1471135856.71913
sS'./src/S1234567A.json'
p4
F1471134300.3484235
sS'./src/full_data.json'
p5
F1471134300.3514936
sS'./src/script.js'
p6
F1471137055.3621473
sS'./src/data.js'
p7
F1471134300.354537
sS'./src/_mui.scss'
p8
F1471134300.3496268
sS'./src/assets/fonts/fontawesome-webfont.woff'
p9
F1471134300.3478265
sS'./src/assets/fonts/fontawesome-webfont.woff2'
p10
F1468592733.4111836
sS'./src/path.min.js'
p11
F1471134300.3509884
sS'./src/logic.js'
p12
F1471137093.3584263
s.