(dp0
S'./src/index.jade'
p1
F1470980565.903076
sS'./src/mui.min.js'
p2
F1470980565.9046988
sS'./src/style.scss'
p3
F1471132310.5223143
sS'./src/S1234567A.json'
p4
F1470980565.8978329
sS'./src/full_data.json'
p5
F1470980565.9021919
sS'./src/script.js'
p6
F1470980565.9062593
sS'./src/data.js'
p7
F1471134016.2639349
sS'./src/_mui.scss'
p8
F1470980565.9003649
sS'./src/assets/fonts/fontawesome-webfont.woff'
p9
F1470565066.315105
sS'./src/assets/fonts/fontawesome-webfont.woff2'
p10
F1468592733.4111836
sS'./src/path.min.js'
p11
F1470980565.9054463
sS'./src/logic.js'
p12
F1470980565.903827
s.