(dp0
S'./src/index.jade'
p1
F1471133861.2835274
sS'./src/mui.min.js'
p2
F1471132765.0334628
sS'./src/style.scss'
p3
F1471133471.6946137
sS'./src/S1234567A.json'
p4
F1471132765.025317
sS'./src/full_data.json'
p5
F1471132855.8791728
sS'./src/script.js'
p6
F1471133526.1463072
sS'./src/data.js'
p7
F1471133970.9130678
sS'./src/_mui.scss'
p8
F1471132765.0300555
sS'./src/assets/fonts/fontawesome-webfont.woff'
p9
F1471132765.024664
sS'./src/assets/fonts/fontawesome-webfont.woff2'
p10
F1468592733.4111836
sS'./src/path.min.js'
p11
F1471132765.0340636
sS'./src/logic.js'
p12
F1471133886.1981165
s.